Certificate:
    Data:
        Version: 3 (0x2)
        Serial Number: 539165720 (0x20230418)
        Signature Algorithm: sha256WithRSAEncryption
        Issuer: C=CA, ST=BC, L=Vancouver, O=Dynamsoft, OU=Dynamsoft, CN=Dynamsoft/emailAddress=support@dynamsoft.com
        Validity
            Not Before: Jun  2 05:33:24 2019 GMT
            Not After : Mar 31 05:33:24 2069 GMT
        Subject: C=CA, ST=BC, O=Dynamsoft, OU=Dynamsoft, CN=127.0.0.1
        Subject Public Key Info:
            Public Key Algorithm: rsaEncryption
                RSA Public-Key: (2048 bit)
                Modulus:
                    00:ca:fe:86:c8:0c:52:b4:df:0a:75:6a:62:74:2b:
                    4e:39:a6:6f:ea:a0:e3:73:4a:7d:af:e4:11:0b:94:
                    89:2c:69:95:23:78:1d:84:40:8b:5a:2e:21:10:fa:
                    7d:ae:12:a8:59:2d:c8:e0:fe:cd:e8:19:37:fa:a7:
                    9e:3f:d2:05:10:6f:94:8d:d4:d8:01:73:02:f0:f2:
                    53:7d:49:e0:8e:ef:3d:7d:e1:d1:55:9c:1f:d5:29:
                    39:3c:4a:01:4e:b9:44:cd:72:e4:88:2b:1f:26:2d:
                    4c:00:d6:f0:5b:c5:10:fb:2a:50:69:e1:98:fc:aa:
                    7f:9a:fc:48:fd:f5:e2:7d:95:3a:7b:31:92:3e:3d:
                    1f:87:7f:0d:ba:03:00:7b:5f:4a:e2:1f:4d:bf:43:
                    75:11:88:f0:9e:7e:25:e9:65:05:21:1a:45:e4:dd:
                    8c:47:08:9c:ec:74:ee:47:d7:f7:52:9a:5b:4b:4f:
                    22:c0:00:23:da:62:83:f7:62:a3:c1:40:2f:f1:27:
                    93:a0:d2:58:bc:31:3e:02:03:34:fb:1b:f1:ab:da:
                    50:a1:36:da:cf:32:0b:82:09:c9:c3:32:de:ec:19:
                    91:ab:2b:be:e5:ff:0f:45:3e:56:bc:69:fe:b5:28:
                    e5:90:10:61:97:97:fe:1b:a0:fc:6c:a0:b3:db:ea:
                    6e:d7
                Exponent: 65537 (0x10001)
        X509v3 extensions:
            X509v3 Basic Constraints: 
                CA:FALSE
            X509v3 Key Usage: 
                Digital Signature, Non Repudiation, Key Encipherment
            X509v3 Subject Alternative Name: 
                IP Address:127.0.0.1, DNS:localhost
            X509v3 CRL Distribution Points: 

                Full Name:
                  URI:http://download.dynamsoft.com/root.crl

                Full Name:
                  URI:https://download.dynamsoft.com/root.crl

    Signature Algorithm: sha256WithRSAEncryption
         84:86:e2:6e:81:e0:f4:c6:6e:a0:00:ed:5d:6f:24:41:cb:2a:
         a0:83:55:6f:09:c1:de:7d:fe:76:6c:e1:a8:fb:60:0d:9d:82:
         c2:5a:84:d7:2a:25:ca:ad:7b:b5:06:05:b4:44:eb:37:4c:f0:
         29:5f:3a:3e:e5:ad:41:69:73:f9:b7:aa:ea:36:cc:17:de:c7:
         cb:f4:ff:30:3c:16:1b:e1:5e:80:49:d4:eb:0a:49:58:08:81:
         be:2f:15:88:58:8a:5b:19:8f:ad:2b:bc:ee:9f:9f:7d:10:36:
         28:03:7b:5f:ec:c7:0c:2a:8a:c7:8a:d9:82:32:de:d0:36:00:
         9f:85
-----BEGIN CERTIFICATE-----
MIIDhjCCAu+gAwIBAgIEICMEGDANBgkqhkiG9w0BAQsFADCBkDELMAkGA1UEBhMC
Q0ExCzAJBgNVBAgTAkJDMRIwEAYDVQQHEwlWYW5jb3V2ZXIxEjAQBgNVBAoTCUR5
bmFtc29mdDESMBAGA1UECxMJRHluYW1zb2Z0MRIwEAYDVQQDEwlEeW5hbXNvZnQx
JDAiBgkqhkiG9w0BCQEWFXN1cHBvcnRAZHluYW1zb2Z0LmNvbTAgFw0xOTA2MDIw
NTMzMjRaGA8yMDY5MDMzMTA1MzMyNFowVjELMAkGA1UEBhMCQ0ExCzAJBgNVBAgT
AkJDMRIwEAYDVQQKEwlEeW5hbXNvZnQxEjAQBgNVBAsTCUR5bmFtc29mdDESMBAG
A1UEAxMJMTI3LjAuMC4xMIIBIjANBgkqhkiG9w0BAQEFAAOCAQ8AMIIBCgKCAQEA
yv6GyAxStN8KdWpidCtOOaZv6qDjc0p9r+QRC5SJLGmVI3gdhECLWi4hEPp9rhKo
WS3I4P7N6Bk3+qeeP9IFEG+UjdTYAXMC8PJTfUngju89feHRVZwf1Sk5PEoBTrlE
zXLkiCsfJi1MANbwW8UQ+ypQaeGY/Kp/mvxI/fXifZU6ezGSPj0fh38NugMAe19K
4h9Nv0N1EYjwnn4l6WUFIRpF5N2MRwic7HTuR9f3UppbS08iwAAj2mKD92KjwUAv
8SeToNJYvDE+AgM0+xvxq9pQoTbazzILggnJwzLe7BmRqyu+5f8PRT5WvGn+tSjl
kBBhl5f+G6D8bKCz2+pu1wIDAQABo4GfMIGcMAkGA1UdEwQCMAAwCwYDVR0PBAQD
AgXgMBoGA1UdEQQTMBGHBH8AAAGCCWxvY2FsaG9zdDBmBgNVHR8EXzBdMCygKqAo
hiZodHRwOi8vZG93bmxvYWQuZHluYW1zb2Z0LmNvbS9yb290LmNybDAtoCugKYYn
aHR0cHM6Ly9kb3dubG9hZC5keW5hbXNvZnQuY29tL3Jvb3QuY3JsMA0GCSqGSIb3
DQEBCwUAA4GBAISG4m6B4PTGbqAA7V1vJEHLKqCDVW8Jwd59/nZs4aj7YA2dgsJa
hNcqJcqte7UGBbRE6zdM8ClfOj7lrUFpc/m3quo2zBfex8v0/zA8FhvhXoBJ1OsK
SVgIgb4vFYhYilsZj60rvO6fn30QNigDe1/sxwwqiseK2YIy3tA2AJ+F
-----END CERTIFICATE-----
